target datalayout = "e-m:e-p270:32:32-p271:32:32-p272:64:64-i64:64-i128:128-f80:128-n8:16:32:64-S128"
target triple = "x86_64-pc-linux-gnu"

@.str = private unnamed_addr constant [26 x i8] c"GIT_TEST_CHECKOUT_WORKERS\00", align 1
@.str.1 = private unnamed_addr constant [29 x i8] c"invalid value for '%s': '%s'\00", align 1
@.str.2 = private unnamed_addr constant [17 x i8] c"checkout.workers\00", align 1
@.str.3 = private unnamed_addr constant [33 x i8] c"checkout.thresholdForParallelism\00", align 1
@the_repository = external global ptr, align 8

; Function Attrs: inlinehint nounwind uwtable
define internal i32 @git_config_get_int(ptr noundef %0, ptr noundef %1) #3 {
  %3 = alloca ptr, align 8
  %4 = alloca ptr, align 8
  store ptr %0, ptr %3, align 8, !tbaa !15
  store ptr %1, ptr %4, align 8, !tbaa !14
  %5 = load ptr, ptr @the_repository, align 8, !tbaa !20
  %6 = load ptr, ptr %3, align 8, !tbaa !15
  %7 = load ptr, ptr %4, align 8, !tbaa !14
  %8 = call i32 @repo_config_get_int(ptr noundef %5, ptr noundef %6, ptr noundef %7)
  ret i32 %8
}

; Function Attrs: inlinehint nounwind uwtable
define internal i32 @strtol_i(ptr noundef %0, i32 noundef %1, ptr noundef %2) #3 {
  %4 = alloca i32, align 4
  %5 = alloca ptr, align 8
  %6 = alloca i32, align 4
  %7 = alloca ptr, align 8
  %8 = alloca i64, align 8
  %9 = alloca ptr, align 8
  %10 = alloca i32, align 4
  store ptr %0, ptr %5, align 8, !tbaa !15
  store i32 %1, ptr %6, align 4, !tbaa !18
  store ptr %2, ptr %7, align 8, !tbaa !14
  call void @llvm.lifetime.start.p0(i64 8, ptr %8) #10
  call void @llvm.lifetime.start.p0(i64 8, ptr %9) #10
  %11 = call ptr @__errno_location() #12
  store i32 0, ptr %11, align 4, !tbaa !18
  %12 = load ptr, ptr %5, align 8, !tbaa !15
  %13 = load i32, ptr %6, align 4, !tbaa !18
  %14 = call i64 @strtol(ptr noundef %12, ptr noundef %9, i32 noundef %13) #10
  store i64 %14, ptr %8, align 8, !tbaa !19
  %15 = call ptr @__errno_location() #12
  %16 = load i32, ptr %15, align 4, !tbaa !18
  %17 = icmp ne i32 %16, 0
  br i1 %17, label %33, label %18

18:                                               ; preds = %3
  %19 = load ptr, ptr %9, align 8, !tbaa !15
  %20 = load i8, ptr %19, align 1, !tbaa !17
  %21 = sext i8 %20 to i32
  %22 = icmp ne i32 %21, 0
  br i1 %22, label %33, label %23

23:                                               ; preds = %18
  %24 = load ptr, ptr %9, align 8, !tbaa !15
  %25 = load ptr, ptr %5, align 8, !tbaa !15
  %26 = icmp eq ptr %24, %25
  br i1 %26, label %33, label %27

27:                                               ; preds = %23
  %28 = load i64, ptr %8, align 8, !tbaa !19
  %29 = trunc i64 %28 to i32
  %30 = sext i32 %29 to i64
  %31 = load i64, ptr %8, align 8, !tbaa !19
  %32 = icmp ne i64 %30, %31
  br i1 %32, label %33, label %34

33:                                               ; preds = %27, %23, %18, %3
  store i32 -1, ptr %4, align 4
  store i32 1, ptr %10, align 4
  br label %38

34:                                               ; preds = %27
  %35 = load i64, ptr %8, align 8, !tbaa !19
  %36 = trunc i64 %35 to i32
  %37 = load ptr, ptr %7, align 8, !tbaa !14
  store i32 %36, ptr %37, align 4, !tbaa !18
  store i32 0, ptr %4, align 4
  store i32 1, ptr %10, align 4
  br label %38

38:                                               ; preds = %34, %33
  call void @llvm.lifetime.end.p0(i64 8, ptr %9) #10
  call void @llvm.lifetime.end.p0(i64 8, ptr %8) #10
  %39 = load i32, ptr %4, align 4
  ret i32 %39
}

; Function Attrs: nounwind uwtable
define dso_local void @get_parallel_checkout_configs(ptr noundef %0, ptr noundef %1) #0 {
  %3 = alloca ptr, align 8
  %4 = alloca ptr, align 8
  %5 = alloca ptr, align 8
  %6 = alloca i32, align 4
  store ptr %0, ptr %3, align 8, !tbaa !14
  store ptr %1, ptr %4, align 8, !tbaa !14
  call void @llvm.lifetime.start.p0(i64 8, ptr %5) #10
  %7 = call ptr @getenv(ptr noundef @.str) #10
  store ptr %7, ptr %5, align 8, !tbaa !15
  %8 = load ptr, ptr %5, align 8, !tbaa !15
  %9 = icmp ne ptr %8, null
  br i1 %9, label %10, label %32

10:                                               ; preds = %2
  %11 = load ptr, ptr %5, align 8, !tbaa !15
  %12 = load i8, ptr %11, align 1, !tbaa !17
  %13 = sext i8 %12 to i32
  %14 = icmp ne i32 %13, 0
  br i1 %14, label %15, label %32

15:                                               ; preds = %10
  %16 = load ptr, ptr %5, align 8, !tbaa !15
  %17 = load ptr, ptr %3, align 8, !tbaa !14
  %18 = call i32 @strtol_i(ptr noundef %16, i32 noundef 10, ptr noundef %17)
  %19 = icmp ne i32 %18, 0
  br i1 %19, label %20, label %23

20:                                               ; preds = %15
  %21 = call ptr @_(ptr noundef @.str.1)
  %22 = load ptr, ptr %5, align 8, !tbaa !15
  call void (ptr, ...) @die(ptr noundef %21, ptr noundef @.str, ptr noundef %22) #11
  unreachable

23:                                               ; preds = %15
  %24 = load ptr, ptr %3, align 8, !tbaa !14
  %25 = load i32, ptr %24, align 4, !tbaa !18
  %26 = icmp slt i32 %25, 1
  br i1 %26, label %27, label %30

27:                                               ; preds = %23
  %28 = call i32 @online_cpus()
  %29 = load ptr, ptr %3, align 8, !tbaa !14
  store i32 %28, ptr %29, align 4, !tbaa !18
  br label %30

30:                                               ; preds = %27, %23
  %31 = load ptr, ptr %4, align 8, !tbaa !14
  store i32 0, ptr %31, align 4, !tbaa !18
  store i32 1, ptr %6, align 4
  br label %53

32:                                               ; preds = %10, %2
  %33 = load ptr, ptr %3, align 8, !tbaa !14
  %34 = call i32 @git_config_get_int(ptr noundef @.str.2, ptr noundef %33)
  %35 = icmp ne i32 %34, 0
  br i1 %35, label %36, label %38

36:                                               ; preds = %32
  %37 = load ptr, ptr %3, align 8, !tbaa !14
  store i32 1, ptr %37, align 4, !tbaa !18
  br label %46

38:                                               ; preds = %32
  %39 = load ptr, ptr %3, align 8, !tbaa !14
  %40 = load i32, ptr %39, align 4, !tbaa !18
  %41 = icmp slt i32 %40, 1
  br i1 %41, label %42, label %45

42:                                               ; preds = %38
  %43 = call i32 @online_cpus()
  %44 = load ptr, ptr %3, align 8, !tbaa !14
  store i32 %43, ptr %44, align 4, !tbaa !18
  br label %45

45:                                               ; preds = %42, %38
  br label %46

46:                                               ; preds = %45, %36
  %47 = load ptr, ptr %4, align 8, !tbaa !14
  %48 = call i32 @git_config_get_int(ptr noundef @.str.3, ptr noundef %47)
  %49 = icmp ne i32 %48, 0
  br i1 %49, label %50, label %52

50:                                               ; preds = %46
  %51 = load ptr, ptr %4, align 8, !tbaa !14
  store i32 100, ptr %51, align 4, !tbaa !18
  br label %52

52:                                               ; preds = %50, %46
  store i32 0, ptr %6, align 4
  br label %53

53:                                               ; preds = %52, %30
  call void @llvm.lifetime.end.p0(i64 8, ptr %5) #10
  %54 = load i32, ptr %6, align 4
  switch i32 %54, label %56 [
    i32 0, label %55
    i32 1, label %55
  ]

55:                                               ; preds = %53, %53
  ret void

56:                                               ; preds = %53
  unreachable
}