; Function Attrs: nounwind uwtable
define dso_local void @get_parallel_checkout_configs(ptr noundef %0, ptr noundef %1) local_unnamed_addr #1 {
  %3 = alloca ptr, align 8
  %4 = tail call ptr @getenv(ptr noundef nonnull @.str) #17
  %.not = icmp eq ptr %4, null
  br i1 %.not, label %23, label %5

5:                                                ; preds = %2
  %6 = load i8, ptr %4, align 1, !tbaa !14
  %.not14 = icmp eq i8 %6, 0
  br i1 %.not14, label %23, label %7

7:                                                ; preds = %5
  call void @llvm.lifetime.start.p0(i64 8, ptr nonnull %3) #17
  %8 = tail call ptr @__errno_location() #18
  store i32 0, ptr %8, align 4, !tbaa !15
  %9 = call i64 @strtol(ptr noundef nonnull %4, ptr noundef nonnull %3, i32 noundef 10) #17
  %10 = load i32, ptr %8, align 4, !tbaa !15
  %.not.i = icmp eq i32 %10, 0
  br i1 %.not.i, label %11, label %16

11:                                               ; preds = %7
  %12 = load ptr, ptr %3, align 8, !tbaa !16
  %13 = load i8, ptr %12, align 1, !tbaa !14
  %.not7.i = icmp eq i8 %13, 0
  %14 = icmp ne ptr %12, %4
  %or.cond.not11.i = and i1 %14, %.not7.i
  %15 = add i64 %9, 2147483648
  %.not8.i = icmp ult i64 %15, 4294967296
  %or.cond9.i = select i1 %or.cond.not11.i, i1 %.not8.i, i1 false
  br i1 %or.cond9.i, label %18, label %16

16:                                               ; preds = %11, %7
  call void @llvm.lifetime.end.p0(i64 8, ptr nonnull %3) #17
  %17 = tail call fastcc ptr @_()
  tail call void (ptr, ...) @die(ptr noundef %17, ptr noundef nonnull @.str, ptr noundef nonnull %4) #19
  unreachable

18:                                               ; preds = %11
  %19 = trunc i64 %9 to i32
  store i32 %19, ptr %0, align 4, !tbaa !15
  call void @llvm.lifetime.end.p0(i64 8, ptr nonnull %3) #17
  %20 = icmp slt i32 %19, 1
  br i1 %20, label %21, label %.sink.split20

21:                                               ; preds = %18
  %22 = tail call i32 @online_cpus() #17
  store i32 %22, ptr %0, align 4, !tbaa !15
  br label %.sink.split20

23:                                               ; preds = %5, %2
  %24 = load ptr, ptr @the_repository, align 8, !tbaa !18
  %25 = tail call i32 @repo_config_get_int(ptr noundef %24, ptr noundef nonnull @.str.2, ptr noundef %0) #17
  %.not15 = icmp eq i32 %25, 0
  br i1 %.not15, label %26, label %.sink.split

26:                                               ; preds = %23
  %27 = load i32, ptr %0, align 4, !tbaa !15
  %28 = icmp slt i32 %27, 1
  br i1 %28, label %29, label %31

29:                                               ; preds = %26
  %30 = tail call i32 @online_cpus() #17
  br label %.sink.split

.sink.split:                                      ; preds = %23, %29
  %.sink = phi i32 [ %30, %29 ], [ 1, %23 ]
  store i32 %.sink, ptr %0, align 4, !tbaa !15
  br label %31

31:                                               ; preds = %.sink.split, %26
  %32 = load ptr, ptr @the_repository, align 8, !tbaa !18
  %33 = tail call i32 @repo_config_get_int(ptr noundef %32, ptr noundef nonnull @.str.3, ptr noundef %1) #17
  %.not16 = icmp eq i32 %33, 0
  br i1 %.not16, label %34, label %.sink.split20

.sink.split20:                                    ; preds = %31, %18, %21
  %.sink21 = phi i32 [ 0, %21 ], [ 0, %18 ], [ 100, %31 ]
  store i32 %.sink21, ptr %1, align 4, !tbaa !15
  br label %34

34:                                               ; preds = %.sink.split20, %31
  ret void
}